Certificate:
    Data:
        Version: 3 (0x2)
        Serial Number: 1 (0x1)
    Signature Algorithm: sha256WithRSAEncryption
        Issuer: CN=devcert
        Validity
            Not Before: Apr 21 19:13:54 2020 GMT
            Not After : Jul 25 19:13:54 2022 GMT
        Subject: CN=localhost
        Subject Public Key Info:
            Public Key Algorithm: rsaEncryption
                Public-Key: (2048 bit)
                Modulus:
                    00:c6:0e:6b:14:84:74:d0:4e:02:3e:0b:47:fd:ec:
                    64:0e:9f:f1:bb:b0:43:8f:9e:84:53:bd:eb:32:f4:
                    11:03:3e:93:de:36:09:88:89:ba:eb:6e:25:cd:1f:
                    1e:cf:3d:a6:3a:f2:05:fc:48:0f:53:bc:67:06:4c:
                    84:75:02:d6:c9:98:8b:44:81:55:dd:4f:fb:0a:06:
                    ce:26:91:b5:db:48:40:8e:2e:57:f2:90:26:7f:cd:
                    5f:47:b6:68:ed:df:8c:a7:66:9b:b2:8d:98:9e:47:
                    57:f9:a4:58:82:9a:ce:51:58:97:18:4b:36:1e:36:
                    28:dd:71:43:f8:19:bd:eb:70:97:b4:c4:30:fb:3a:
                    17:d1:fe:16:0b:32:29:84:c4:fb:57:07:bc:32:06:
                    9b:b3:50:3d:7b:61:a1:47:7e:65:73:52:b5:90:36:
                    43:b4:63:92:4c:19:1d:b0:7e:75:01:3e:c8:98:7f:
                    87:0f:0d:82:d6:68:ba:5a:f0:60:f0:d2:4d:ef:c1:
                    4e:86:05:fe:4c:c7:61:6f:0d:de:5a:b0:90:d9:cb:
                    0b:4e:c6:f3:5f:24:9b:66:ce:70:47:00:c0:c3:ae:
                    15:96:17:51:93:a3:70:fa:76:21:99:05:2b:a8:56:
                    39:16:64:bf:08:fe:43:d9:5d:bb:5b:31:2d:c3:03:
                    c7:bf
                Exponent: 65537 (0x10001)
        X509v3 extensions:
            X509v3 Basic Constraints: critical
                CA:FALSE
            X509v3 Subject Key Identifier: 
                15:96:3C:58:BF:4C:0D:42:54:95:AA:A3:37:A5:67:91:16:B0:87:12
            X509v3 Authority Key Identifier: 
                keyid:3C:4B:D6:91:79:11:05:1B:AA:23:E8:95:A2:B6:86:EC:F8:50:F0:CA
                DirName:/CN=devcert
                serial:95:BD:DE:93:93:76:47:55

            X509v3 Key Usage: critical
                Digital Signature, Key Encipherment
            X509v3 Extended Key Usage: 
                TLS Web Server Authentication
            X509v3 Subject Alternative Name: 
                DNS:localhost, DNS:*.localhost
    Signature Algorithm: sha256WithRSAEncryption
         8f:5e:ae:05:ee:c0:5c:f5:c7:a8:c9:34:65:7b:82:1c:15:46:
         58:41:45:23:6a:ee:86:6f:20:9a:3a:4f:e0:d6:61:da:e2:5f:
         be:34:61:be:06:c8:63:54:68:61:0c:31:46:f0:0c:32:63:19:
         ac:7b:c8:3b:78:da:17:3d:41:ca:83:f3:77:bb:ac:61:8d:0a:
         74:16:63:46:2f:d3:4b:9c:85:27:45:d7:92:e1:60:66:f6:61:
         8c:81:ef:4d:49:25:64:23:bc:a8:82:70:54:71:78:ec:d5:de:
         a1:e7:4f:7d:5f:8b:95:58:e9:15:76:ad:86:98:00:04:76:55:
         80:ea:c7:42:3a:08:4e:37:60:03:23:df:95:ed:20:d7:ca:e3:
         18:85:16:8f:18:b9:15:e4:d4:a4:56:b8:42:14:5c:55:fa:6f:
         63:e9:a3:d0:b5:90:8a:ee:d9:15:cb:41:57:b8:e8:df:8d:6a:
         19:7a:3c:cf:22:05:12:f8:83:98:f0:12:9e:a3:48:53:14:65:
         69:aa:1e:26:af:eb:fc:5e:b0:75:bf:62:fc:4e:fe:15:c5:4c:
         98:a8:12:1b:87:74:68:32:e4:72:d3:3d:d3:0e:c9:f9:dd:b4:
         33:0f:0f:1d:33:48:d3:06:2b:61:52:a2:6d:be:dc:97:a9:b1:
         90:40:df:1a
-----BEGIN CERTIFICATE-----
MIIDXjCCAkagAwIBAgIBATANBgkqhkiG9w0BAQsFADASMRAwDgYDVQQDDAdkZXZj
ZXJ0MB4XDTIwMDQyMTE5MTM1NFoXDTIyMDcyNTE5MTM1NFowFDESMBAGA1UEAwwJ
bG9jYWxob3N0MIIBIjANBgkqhkiG9w0BAQEFAAOCAQ8AMIIBCgKCAQEAxg5rFIR0
0E4CPgtH/exkDp/xu7BDj56EU73rMvQRAz6T3jYJiIm6624lzR8ezz2mOvIF/EgP
U7xnBkyEdQLWyZiLRIFV3U/7CgbOJpG120hAji5X8pAmf81fR7Zo7d+Mp2abso2Y
nkdX+aRYgprOUViXGEs2HjYo3XFD+Bm963CXtMQw+zoX0f4WCzIphMT7Vwe8Mgab
s1A9e2GhR35lc1K1kDZDtGOSTBkdsH51AT7ImH+HDw2C1mi6WvBg8NJN78FOhgX+
TMdhbw3eWrCQ2csLTsbzXySbZs5wRwDAw64VlhdRk6Nw+nYhmQUrqFY5FmS/CP5D
2V27WzEtwwPHvwIDAQABo4G8MIG5MAwGA1UdEwEB/wQCMAAwHQYDVR0OBBYEFBWW
PFi/TA1CVJWqozelZ5EWsIcSMEIGA1UdIwQ7MDmAFDxL1pF5EQUbqiPolaK2huz4
UPDKoRakFDASMRAwDgYDVQQDDAdkZXZjZXJ0ggkAlb3ek5N2R1UwDgYDVR0PAQH/
BAQDAgWgMBMGA1UdJQQMMAoGCCsGAQUFBwMBMCEGA1UdEQQaMBiCCWxvY2FsaG9z
dIILKi5sb2NhbGhvc3QwDQYJKoZIhvcNAQELBQADggEBAI9ergXuwFz1x6jJNGV7
ghwVRlhBRSNq7oZvIJo6T+DWYdriX740Yb4GyGNUaGEMMUbwDDJjGax7yDt42hc9
QcqD83e7rGGNCnQWY0Yv00uchSdF15LhYGb2YYyB701JJWQjvKiCcFRxeOzV3qHn
T31fi5VY6RV2rYaYAAR2VYDqx0I6CE43YAMj35XtINfK4xiFFo8YuRXk1KRWuEIU
XFX6b2Ppo9C1kIru2RXLQVe46N+Nahl6PM8iBRL4g5jwEp6jSFMUZWmqHiav6/xe
sHW/YvxO/hXFTJioEhuHdGgy5HLTPdMOyfndtDMPDx0zSNMGK2FSom2+3JepsZBA
3xo=
-----END CERTIFICATE-----
